; ModuleID = '23/804.c'
source_filename = "23/804.c"
target datalayout = "e-m:e-p270:32:32-p271:32:32-p272:64:64-i64:64-f80:128-n8:16:32:64-S128"
target triple = "x86_64-pc-linux-gnu"

@.str = private unnamed_addr constant [4 x i8] c"%s \00", align 1
@.str.1 = private unnamed_addr constant [4 x i8] c"%s\0A\00", align 1

; Function Attrs: noinline nounwind uwtable
define dso_local void @main() #0 {
  %1 = alloca [102 x i8], align 16
  %2 = alloca [60 x [20 x i8]], align 16
  %3 = alloca i8*, align 8
  %4 = alloca i8*, align 8
  %5 = alloca i32, align 4
  %6 = alloca i32, align 4
  %7 = alloca i8*, align 8
  %8 = bitcast [102 x i8]* %1 to i8*
  call void @llvm.memset.p0i8.i64(i8* align 16 %8, i8 0, i64 102, i1 false)
  %9 = bitcast [60 x [20 x i8]]* %2 to i8*
  call void @llvm.memset.p0i8.i64(i8* align 16 %9, i8 0, i64 1200, i1 false)
  %10 = getelementptr inbounds [102 x i8], [102 x i8]* %1, i64 0, i64 0
  %11 = call i32 (i8*, ...) bitcast (i32 (...)* @gets to i32 (i8*, ...)*)(i8* %10)
  store i32 0, i32* %5, align 4
  %12 = getelementptr inbounds [102 x i8], [102 x i8]* %1, i64 0, i64 0
  store i8* %12, i8** %3, align 8
  %13 = getelementptr inbounds [102 x i8], [102 x i8]* %1, i64 0, i64 0
  store i8* %13, i8** %4, align 8
  br label %14

14:                                               ; preds = %55, %0
  %15 = load i8*, i8** %3, align 8
  %16 = load i8, i8* %15, align 1
  %17 = sext i8 %16 to i32
  %18 = icmp ne i32 %17, 0
  br i1 %18, label %19, label %61

19:                                               ; preds = %14
  br label %20

20:                                               ; preds = %32, %19
  %21 = load i8*, i8** %3, align 8
  %22 = load i8, i8* %21, align 1
  %23 = sext i8 %22 to i32
  %24 = icmp ne i32 %23, 32
  br i1 %24, label %25, label %30

25:                                               ; preds = %20
  %26 = load i8*, i8** %3, align 8
  %27 = load i8, i8* %26, align 1
  %28 = sext i8 %27 to i32
  %29 = icmp ne i32 %28, 0
  br label %30

30:                                               ; preds = %25, %20
  %31 = phi i1 [ false, %20 ], [ %29, %25 ]
  br i1 %31, label %32, label %35

32:                                               ; preds = %30
  %33 = load i8*, i8** %3, align 8
  %34 = getelementptr inbounds i8, i8* %33, i32 1
  store i8* %34, i8** %3, align 8
  br label %20

35:                                               ; preds = %30
  store i32 0, i32* %6, align 4
  %36 = load i8*, i8** %4, align 8
  store i8* %36, i8** %7, align 8
  br label %37

37:                                               ; preds = %50, %35
  %38 = load i8*, i8** %7, align 8
  %39 = load i8*, i8** %3, align 8
  %40 = icmp ult i8* %38, %39
  br i1 %40, label %41, label %55

41:                                               ; preds = %37
  %42 = load i8*, i8** %7, align 8
  %43 = load i8, i8* %42, align 1
  %44 = load i32, i32* %5, align 4
  %45 = sext i32 %44 to i64
  %46 = getelementptr inbounds [60 x [20 x i8]], [60 x [20 x i8]]* %2, i64 0, i64 %45
  %47 = load i32, i32* %6, align 4
  %48 = sext i32 %47 to i64
  %49 = getelementptr inbounds [20 x i8], [20 x i8]* %46, i64 0, i64 %48
  store i8 %43, i8* %49, align 1
  br label %50

50:                                               ; preds = %41
  %51 = load i8*, i8** %7, align 8
  %52 = getelementptr inbounds i8, i8* %51, i32 1
  store i8* %52, i8** %7, align 8
  %53 = load i32, i32* %6, align 4
  %54 = add nsw i32 %53, 1
  store i32 %54, i32* %6, align 4
  br label %37

55:                                               ; preds = %37
  %56 = load i32, i32* %5, align 4
  %57 = add nsw i32 %56, 1
  store i32 %57, i32* %5, align 4
  %58 = load i8*, i8** %3, align 8
  %59 = getelementptr inbounds i8, i8* %58, i32 1
  store i8* %59, i8** %3, align 8
  %60 = load i8*, i8** %3, align 8
  store i8* %60, i8** %4, align 8
  br label %14

61:                                               ; preds = %14
  %62 = load i32, i32* %5, align 4
  %63 = sub nsw i32 %62, 1
  store i32 %63, i32* %6, align 4
  br label %64

64:                                               ; preds = %73, %61
  %65 = load i32, i32* %6, align 4
  %66 = icmp sgt i32 %65, 0
  br i1 %66, label %67, label %76

67:                                               ; preds = %64
  %68 = load i32, i32* %6, align 4
  %69 = sext i32 %68 to i64
  %70 = getelementptr inbounds [60 x [20 x i8]], [60 x [20 x i8]]* %2, i64 0, i64 %69
  %71 = getelementptr inbounds [20 x i8], [20 x i8]* %70, i64 0, i64 0
  %72 = call i32 (i8*, ...) @printf(i8* getelementptr inbounds ([4 x i8], [4 x i8]* @.str, i64 0, i64 0), i8* %71)
  br label %73

73:                                               ; preds = %67
  %74 = load i32, i32* %6, align 4
  %75 = add nsw i32 %74, -1
  store i32 %75, i32* %6, align 4
  br label %64

76:                                               ; preds = %64
  %77 = getelementptr inbounds [60 x [20 x i8]], [60 x [20 x i8]]* %2, i64 0, i64 0
  %78 = getelementptr inbounds [20 x i8], [20 x i8]* %77, i64 0, i64 0
  %79 = call i32 (i8*, ...) @printf(i8* getelementptr inbounds ([4 x i8], [4 x i8]* @.str.1, i64 0, i64 0), i8* %78)
  ret void
}

; Function Attrs: argmemonly nounwind willreturn
declare void @llvm.memset.p0i8.i64(i8* nocapture writeonly, i8, i64, i1 immarg) #1

declare dso_local i32 @gets(...) #2

declare dso_local i32 @printf(i8*, ...) #2


!llvm.module.flags = !{!0}
!llvm.ident = !{!1}

!0 = !{i32 1, !"wchar_size", i32 4}
!1 = !{!"clang version 10.0.0-4ubuntu1 "}
